; Function Attrs: nounwind uwtable
define internal noundef i32 @lagfun_frame8(ptr noundef readonly captures(none) %0, ptr noundef readonly captures(none) %1, i32 noundef %2, i32 noundef %3) #2 {
  %5 = getelementptr inbounds nuw i8, ptr %0, i64 72
  %6 = load ptr, ptr %5, align 8, !tbaa !4
  %7 = getelementptr inbounds nuw i8, ptr %6, i64 8
  %8 = load float, ptr %7, align 8, !tbaa !60
  %9 = load ptr, ptr %1, align 8, !tbaa !43
  %10 = getelementptr inbounds nuw i8, ptr %1, i64 8
  %11 = load ptr, ptr %10, align 8, !tbaa !41
  %12 = getelementptr inbounds nuw i8, ptr %6, i64 20
  %13 = load i32, ptr %12, align 4, !tbaa !20
  %14 = icmp sgt i32 %13, 0
  br i1 %14, label %.lr.ph, label %._crit_edge

.lr.ph:                                           ; preds = %4
  %15 = getelementptr inbounds nuw i8, ptr %6, i64 56
  %16 = add nsw i32 %2, 1
  %17 = getelementptr inbounds nuw i8, ptr %6, i64 40
  %18 = getelementptr inbounds nuw i8, ptr %9, i64 64
  %19 = getelementptr inbounds nuw i8, ptr %11, i64 64
  %20 = getelementptr inbounds nuw i8, ptr %6, i64 12
  %21 = getelementptr inbounds nuw i8, ptr %6, i64 72
  %22 = getelementptr inbounds nuw i8, ptr %6, i64 24
  br label %23

._crit_edge:                                      ; preds = %.loopexit, %4
  ret i32 0

23:                                               ; preds = %.lr.ph, %.loopexit
  %indvars.iv85 = phi i64 [ 0, %.lr.ph ], [ %indvars.iv.next86, %.loopexit ]
  %24 = getelementptr inbounds nuw [4 x i32], ptr %15, i64 0, i64 %indvars.iv85
  %25 = load i32, ptr %24, align 4, !tbaa !46
  %26 = mul nsw i32 %25, %2
  %27 = sdiv i32 %26, %3
  %28 = mul nsw i32 %25, %16
  %29 = sdiv i32 %28, %3
  %30 = getelementptr inbounds nuw [4 x i32], ptr %17, i64 0, i64 %indvars.iv85
  %31 = load i32, ptr %30, align 4, !tbaa !46
  %32 = getelementptr inbounds nuw [8 x ptr], ptr %9, i64 0, i64 %indvars.iv85
  %33 = load ptr, ptr %32, align 8, !tbaa !61
  %34 = getelementptr inbounds nuw [8 x i32], ptr %18, i64 0, i64 %indvars.iv85
  %35 = load i32, ptr %34, align 4, !tbaa !46
  %36 = mul nsw i32 %35, %27
  %37 = sext i32 %36 to i64
  %38 = getelementptr inbounds nuw i8, ptr %33, i64 %37
  %39 = getelementptr inbounds nuw [8 x ptr], ptr %11, i64 0, i64 %indvars.iv85
  %40 = load ptr, ptr %39, align 8, !tbaa !61
  %41 = getelementptr inbounds nuw [8 x i32], ptr %19, i64 0, i64 %indvars.iv85
  %42 = load i32, ptr %41, align 4, !tbaa !46
  %43 = mul nsw i32 %42, %27
  %44 = sext i32 %43 to i64
  %45 = getelementptr inbounds nuw i8, ptr %40, i64 %44
  %46 = trunc nuw nsw i64 %indvars.iv85 to i32
  %47 = shl nuw i32 1, %46
  %48 = load i32, ptr %20, align 4, !tbaa !62
  %49 = and i32 %48, %47
  %.not = icmp eq i32 %49, 0
  br i1 %.not, label %50, label %54

50:                                               ; preds = %23
  %51 = getelementptr inbounds nuw [4 x i32], ptr %22, i64 0, i64 %indvars.iv85
  %52 = load i32, ptr %51, align 4, !tbaa !46
  %53 = sub nsw i32 %29, %27
  tail call void @av_image_copy_plane(ptr noundef %45, i32 noundef %42, ptr noundef %38, i32 noundef %35, i32 noundef %52, i32 noundef %53) #7
  br label %.loopexit

54:                                               ; preds = %23
  %55 = icmp slt i32 %27, %29
  br i1 %55, label %.preheader.lr.ph, label %.loopexit

.preheader.lr.ph:                                 ; preds = %54
  %56 = icmp sgt i32 %31, 0
  %57 = sext i32 %31 to i64
  br i1 %56, label %.preheader.us.preheader, label %.loopexit

.preheader.us.preheader:                          ; preds = %.preheader.lr.ph
  %58 = getelementptr inbounds nuw [4 x ptr], ptr %21, i64 0, i64 %indvars.iv85
  %59 = load ptr, ptr %58, align 8, !tbaa !58
  %60 = mul nsw i32 %31, %27
  %61 = sext i32 %60 to i64
  %62 = getelementptr inbounds float, ptr %59, i64 %61
  %wide.trip.count = zext nneg i32 %31 to i64
  br label %.preheader.us

.preheader.us:                                    ; preds = %.preheader.us.preheader, %._crit_edge.us
  %.07180.us = phi i32 [ %81, %._crit_edge.us ], [ %27, %.preheader.us.preheader ]
  %.07279.us = phi ptr [ %80, %._crit_edge.us ], [ %45, %.preheader.us.preheader ]
  %.07378.us = phi ptr [ %77, %._crit_edge.us ], [ %62, %.preheader.us.preheader ]
  %.07477.us = phi ptr [ %76, %._crit_edge.us ], [ %38, %.preheader.us.preheader ]
  br label %63

63:                                               ; preds = %.preheader.us, %63
  %indvars.iv = phi i64 [ 0, %.preheader.us ], [ %indvars.iv.next, %63 ]
  %64 = getelementptr inbounds nuw i8, ptr %.07477.us, i64 %indvars.iv
  %65 = load i8, ptr %64, align 1, !tbaa !63
  %66 = uitofp i8 %65 to float
  %67 = getelementptr inbounds nuw float, ptr %.07378.us, i64 %indvars.iv
  %68 = load float, ptr %67, align 4, !tbaa !64
  %69 = fmul nsz float %8, %68
  %70 = tail call nsz float @llvm.maxnum.f32(float %66, float %69)
  store float %70, ptr %67, align 4, !tbaa !64
  %71 = tail call i64 @llvm.lrint.i64.f32(float %70)
  %72 = trunc i64 %71 to i8
  %73 = getelementptr inbounds nuw i8, ptr %.07279.us, i64 %indvars.iv
  store i8 %72, ptr %73, align 1, !tbaa !63
  %indvars.iv.next = add nuw nsw i64 %indvars.iv, 1
  %exitcond.not = icmp eq i64 %indvars.iv.next, %wide.trip.count
  br i1 %exitcond.not, label %._crit_edge.us, label %63, !llvm.loop !65

._crit_edge.us:                                   ; preds = %63
  %74 = load i32, ptr %34, align 4, !tbaa !46
  %75 = sext i32 %74 to i64
  %76 = getelementptr inbounds nuw i8, ptr %.07477.us, i64 %75
  %77 = getelementptr inbounds nuw float, ptr %.07378.us, i64 %57
  %78 = load i32, ptr %41, align 4, !tbaa !46
  %79 = sext i32 %78 to i64
  %80 = getelementptr inbounds nuw i8, ptr %.07279.us, i64 %79
  %81 = add nsw i32 %.07180.us, 1
  %exitcond84.not = icmp eq i32 %81, %29
  br i1 %exitcond84.not, label %.loopexit, label %.preheader.us, !llvm.loop !66

.loopexit:                                        ; preds = %._crit_edge.us, %.preheader.lr.ph, %54, %50
  %indvars.iv.next86 = add nuw nsw i64 %indvars.iv85, 1
  %82 = load i32, ptr %12, align 4, !tbaa !20
  %83 = sext i32 %82 to i64
  %84 = icmp slt i64 %indvars.iv.next86, %83
  br i1 %84, label %23, label %._crit_edge, !llvm.loop !67
}